; Function Attrs: nounwind uwtable
define noalias noundef ptr @Ssw_MatchingMiter(ptr readnone captures(none) %0, ptr noundef readonly captures(none) %1, ptr noundef readonly captures(none) %2, ptr noundef readonly captures(none) %3) local_unnamed_addr #1 {
  %5 = getelementptr i8, ptr %1, i64 32
  %.val29 = load ptr, ptr %5, align 8, !tbaa !28
  %6 = getelementptr i8, ptr %1, i64 156
  %.val30 = load i32, ptr %6, align 4, !tbaa !62
  %7 = getelementptr i8, ptr %.val29, i64 4
  %.val29.val = load i32, ptr %7, align 4, !tbaa !44
  %8 = sub nsw i32 %.val29.val, %.val30
  %9 = shl nsw i32 %8, 1
  %10 = tail call noalias dereferenceable_or_null(16) ptr @malloc(i64 noundef 16) #14
  %11 = add i32 %9, -1
  %or.cond.i = icmp ult i32 %11, 15
  %spec.store.select.i = select i1 %or.cond.i, i32 16, i32 %9
  %12 = getelementptr inbounds nuw i8, ptr %10, i64 4
  store i32 0, ptr %12, align 4, !tbaa !11
  store i32 %spec.store.select.i, ptr %10, align 8, !tbaa !14
  %.not.i = icmp eq i32 %spec.store.select.i, 0
  br i1 %.not.i, label %Vec_IntAlloc.exit, label %13

13:                                               ; preds = %4
  %14 = sext i32 %spec.store.select.i to i64
  %15 = shl nsw i64 %14, 2
  %16 = tail call noalias ptr @malloc(i64 noundef %15) #14
  br label %Vec_IntAlloc.exit

Vec_IntAlloc.exit:                                ; preds = %4, %13
  %17 = phi ptr [ %16, %13 ], [ null, %4 ]
  %18 = getelementptr inbounds nuw i8, ptr %10, i64 8
  store ptr %17, ptr %18, align 8, !tbaa !15
  %19 = getelementptr i8, ptr %3, i64 4
  %.val46 = load i32, ptr %19, align 4, !tbaa !11
  %20 = icmp sgt i32 %.val46, 0
  br i1 %20, label %Aig_ManObj.exit.lr.ph, label %._crit_edge

Aig_ManObj.exit.lr.ph:                            ; preds = %Vec_IntAlloc.exit
  %21 = getelementptr i8, ptr %3, i64 8
  %22 = getelementptr i8, ptr %2, i64 32
  br label %Aig_ManObj.exit

Aig_ManObj.exit:                                  ; preds = %Aig_ManObj.exit.lr.ph, %97
  %.val55 = phi i32 [ %.val46, %Aig_ManObj.exit.lr.ph ], [ %.val, %97 ]
  %.pre.i3951 = phi ptr [ %17, %Aig_ManObj.exit.lr.ph ], [ %.pre.i3952, %97 ]
  %23 = phi ptr [ %17, %Aig_ManObj.exit.lr.ph ], [ %.pre.i50, %97 ]
  %indvars.iv = phi i64 [ 0, %Aig_ManObj.exit.lr.ph ], [ %indvars.iv.next, %97 ]
  %.val25 = load ptr, ptr %21, align 8, !tbaa !15
  %24 = getelementptr inbounds nuw i32, ptr %.val25, i64 %indvars.iv
  %25 = load i32, ptr %24, align 4, !tbaa !16
  %.val27 = load ptr, ptr %5, align 8, !tbaa !28, !nonnull !29, !noundef !29
  %26 = getelementptr i8, ptr %.val27, i64 8
  %.val.i = load ptr, ptr %26, align 8, !tbaa !30
  %27 = sext i32 %25 to i64
  %28 = getelementptr inbounds ptr, ptr %.val.i, i64 %27
  %29 = load ptr, ptr %28, align 8, !tbaa !32
  %30 = or disjoint i64 %indvars.iv, 1
  %31 = getelementptr inbounds nuw i32, ptr %.val25, i64 %30
  %32 = load i32, ptr %31, align 4, !tbaa !16
  %.val26 = load ptr, ptr %22, align 8, !tbaa !28, !nonnull !29, !noundef !29
  %33 = getelementptr i8, ptr %.val26, i64 8
  %.val.i35 = load ptr, ptr %33, align 8, !tbaa !30
  %34 = sext i32 %32 to i64
  %35 = getelementptr inbounds ptr, ptr %.val.i35, i64 %34
  %36 = load ptr, ptr %35, align 8, !tbaa !32
  %37 = getelementptr inbounds nuw i8, ptr %29, i64 40
  %38 = load ptr, ptr %37, align 8, !tbaa !3
  %39 = getelementptr inbounds nuw i8, ptr %36, i64 40
  %40 = load ptr, ptr %39, align 8, !tbaa !3
  %41 = icmp eq ptr %38, %40
  br i1 %41, label %97, label %42

42:                                               ; preds = %Aig_ManObj.exit
  %43 = getelementptr i8, ptr %38, i64 24
  %.val31 = load i64, ptr %43, align 8
  %44 = and i64 %.val31, 7
  %.not = icmp eq i64 %44, 0
  br i1 %.not, label %97, label %45

45:                                               ; preds = %42
  %46 = getelementptr i8, ptr %40, i64 24
  %.val32 = load i64, ptr %46, align 8
  %47 = and i64 %.val32, 7
  %.not44 = icmp eq i64 %47, 0
  %.not45 = icmp eq i64 %44, 3
  %or.cond = or i1 %.not45, %.not44
  br i1 %or.cond, label %97, label %48

48:                                               ; preds = %45
  %49 = getelementptr inbounds nuw i8, ptr %38, i64 36
  %50 = load i32, ptr %49, align 4, !tbaa !6
  %51 = load i32, ptr %12, align 4, !tbaa !11
  %52 = load i32, ptr %10, align 8, !tbaa !14
  %53 = icmp eq i32 %51, %52
  br i1 %53, label %54, label %Vec_IntPush.exit

54:                                               ; preds = %48
  %55 = icmp slt i32 %51, 16
  br i1 %55, label %56, label %61

56:                                               ; preds = %54
  %.not9.i.i = icmp eq ptr %23, null
  br i1 %.not9.i.i, label %59, label %57

57:                                               ; preds = %56
  %58 = tail call dereferenceable_or_null(64) ptr @realloc(ptr noundef nonnull %23, i64 noundef 64) #13
  br label %Vec_IntPush.exit.sink.split

59:                                               ; preds = %56
  %60 = tail call noalias dereferenceable_or_null(64) ptr @malloc(i64 noundef 64) #14
  br label %Vec_IntPush.exit.sink.split

61:                                               ; preds = %54
  %62 = shl nuw nsw i32 %51, 1
  %.not9.i9.i = icmp eq ptr %23, null
  %63 = zext nneg i32 %62 to i64
  %64 = shl nuw nsw i64 %63, 2
  br i1 %.not9.i9.i, label %67, label %65

65:                                               ; preds = %61
  %66 = tail call ptr @realloc(ptr noundef nonnull %23, i64 noundef %64) #13
  br label %Vec_IntPush.exit.sink.split

67:                                               ; preds = %61
  %68 = tail call noalias ptr @malloc(i64 noundef %64) #14
  br label %Vec_IntPush.exit.sink.split

Vec_IntPush.exit.sink.split:                      ; preds = %65, %67, %57, %59
  %.sink58 = phi ptr [ %58, %57 ], [ %60, %59 ], [ %66, %65 ], [ %68, %67 ]
  %.sink = phi i32 [ 16, %57 ], [ 16, %59 ], [ %62, %65 ], [ %62, %67 ]
  store ptr %.sink58, ptr %18, align 8, !tbaa !15
  store i32 %.sink, ptr %10, align 8, !tbaa !14
  br label %Vec_IntPush.exit

Vec_IntPush.exit:                                 ; preds = %Vec_IntPush.exit.sink.split, %48
  %69 = phi ptr [ %.pre.i3951, %48 ], [ %.sink58, %Vec_IntPush.exit.sink.split ]
  %70 = phi ptr [ %23, %48 ], [ %.sink58, %Vec_IntPush.exit.sink.split ]
  %71 = add nsw i32 %51, 1
  store i32 %71, ptr %12, align 4, !tbaa !11
  %72 = sext i32 %51 to i64
  %73 = getelementptr inbounds i32, ptr %70, i64 %72
  store i32 %50, ptr %73, align 4, !tbaa !16
  %74 = getelementptr inbounds nuw i8, ptr %40, i64 36
  %75 = load i32, ptr %74, align 4, !tbaa !6
  %76 = load i32, ptr %12, align 4, !tbaa !11
  %77 = load i32, ptr %10, align 8, !tbaa !14
  %78 = icmp eq i32 %76, %77
  br i1 %78, label %79, label %Vec_IntPush.exit43

79:                                               ; preds = %Vec_IntPush.exit
  %80 = icmp slt i32 %76, 16
  br i1 %80, label %81, label %86

81:                                               ; preds = %79
  %.not9.i.i41 = icmp eq ptr %69, null
  br i1 %.not9.i.i41, label %84, label %82

82:                                               ; preds = %81
  %83 = tail call dereferenceable_or_null(64) ptr @realloc(ptr noundef nonnull %69, i64 noundef 64) #13
  br label %Vec_IntPush.exit43.sink.split

84:                                               ; preds = %81
  %85 = tail call noalias dereferenceable_or_null(64) ptr @malloc(i64 noundef 64) #14
  br label %Vec_IntPush.exit43.sink.split

86:                                               ; preds = %79
  %87 = shl nuw nsw i32 %76, 1
  %.not9.i9.i40 = icmp eq ptr %69, null
  %88 = zext nneg i32 %87 to i64
  %89 = shl nuw nsw i64 %88, 2
  br i1 %.not9.i9.i40, label %92, label %90

90:                                               ; preds = %86
  %91 = tail call ptr @realloc(ptr noundef nonnull %69, i64 noundef %89) #13
  br label %Vec_IntPush.exit43.sink.split

92:                                               ; preds = %86
  %93 = tail call noalias ptr @malloc(i64 noundef %89) #14
  br label %Vec_IntPush.exit43.sink.split

Vec_IntPush.exit43.sink.split:                    ; preds = %90, %92, %82, %84
  %.sink60 = phi ptr [ %83, %82 ], [ %85, %84 ], [ %91, %90 ], [ %93, %92 ]
  %.sink59 = phi i32 [ 16, %82 ], [ 16, %84 ], [ %87, %90 ], [ %87, %92 ]
  store ptr %.sink60, ptr %18, align 8, !tbaa !15
  store i32 %.sink59, ptr %10, align 8, !tbaa !14
  br label %Vec_IntPush.exit43

Vec_IntPush.exit43:                               ; preds = %Vec_IntPush.exit43.sink.split, %Vec_IntPush.exit
  %.pre.i3953 = phi ptr [ %69, %Vec_IntPush.exit ], [ %.sink60, %Vec_IntPush.exit43.sink.split ]
  %94 = add nsw i32 %76, 1
  store i32 %94, ptr %12, align 4, !tbaa !11
  %95 = sext i32 %76 to i64
  %96 = getelementptr inbounds i32, ptr %.pre.i3953, i64 %95
  store i32 %75, ptr %96, align 4, !tbaa !16
  %.val.pre = load i32, ptr %19, align 4, !tbaa !11
  br label %97

97:                                               ; preds = %42, %45, %Aig_ManObj.exit, %Vec_IntPush.exit43
  %.val = phi i32 [ %.val55, %42 ], [ %.val55, %45 ], [ %.val55, %Aig_ManObj.exit ], [ %.val.pre, %Vec_IntPush.exit43 ]
  %.pre.i3952 = phi ptr [ %.pre.i3951, %42 ], [ %.pre.i3951, %45 ], [ %.pre.i3951, %Aig_ManObj.exit ], [ %.pre.i3953, %Vec_IntPush.exit43 ]
  %.pre.i50 = phi ptr [ %23, %42 ], [ %23, %45 ], [ %23, %Aig_ManObj.exit ], [ %.pre.i3953, %Vec_IntPush.exit43 ]
  %indvars.iv.next = add nuw nsw i64 %indvars.iv, 2
  %98 = sext i32 %.val to i64
  %99 = icmp slt i64 %indvars.iv.next, %98
  br i1 %99, label %Aig_ManObj.exit, label %._crit_edge, !llvm.loop !64

._crit_edge:                                      ; preds = %97, %Vec_IntAlloc.exit
  ret ptr %10
}